; Function Attrs: mustprogress uwtable
define noundef i32 @_ZNK6casadi4Lsqr8init_memEPv(ptr noundef nonnull align 8 dereferenceable(184) %0, ptr noundef %1) unnamed_addr #4 align 2 personality ptr @__gxx_personality_v0 {
  %3 = tail call noundef i32 @_ZNK6casadi14LinsolInternal8init_memEPv(ptr noundef nonnull align 8 dereferenceable(184) %0, ptr noundef %1)
  %.not = icmp eq i32 %3, 0
  br i1 %.not, label %4, label %_ZNSt6vectorIdSaIdEE6resizeEm.exit6

4:                                                ; preds = %2
  %5 = getelementptr inbounds i8, ptr %1, i64 88
  %6 = getelementptr inbounds i8, ptr %0, i64 176
  %7 = tail call noundef i64 @_ZNK6casadi8Sparsity5size1Ev(ptr noundef nonnull align 8 dereferenceable(8) %6)
  %8 = tail call noundef i64 @_ZNK6casadi8Sparsity5size2Ev(ptr noundef nonnull align 8 dereferenceable(8) %6)
  %9 = shl nsw i64 %8, 2
  %10 = add nsw i64 %9, %7
  %11 = getelementptr inbounds i8, ptr %1, i64 96
  %12 = load ptr, ptr %11, align 8
  %13 = load ptr, ptr %5, align 8
  %14 = ptrtoint ptr %12 to i64
  %15 = ptrtoint ptr %13 to i64
  %16 = sub i64 %14, %15
  %17 = ashr exact i64 %16, 3
  %18 = icmp ult i64 %17, %10
  br i1 %18, label %19, label %21

19:                                               ; preds = %4
  %20 = sub i64 %10, %17
  tail call void @_ZNSt6vectorIdSaIdEE17_M_default_appendEm(ptr noundef nonnull align 8 dereferenceable(24) %5, i64 noundef %20)
  br label %_ZNSt6vectorIdSaIdEE6resizeEm.exit

21:                                               ; preds = %4
  %22 = icmp ugt i64 %17, %10
  br i1 %22, label %23, label %_ZNSt6vectorIdSaIdEE6resizeEm.exit

23:                                               ; preds = %21
  %24 = getelementptr inbounds double, ptr %13, i64 %10
  %.not.i.i = icmp eq ptr %12, %24
  br i1 %.not.i.i, label %_ZNSt6vectorIdSaIdEE6resizeEm.exit, label %25

25:                                               ; preds = %23
  store ptr %24, ptr %11, align 8
  br label %_ZNSt6vectorIdSaIdEE6resizeEm.exit

_ZNSt6vectorIdSaIdEE6resizeEm.exit:               ; preds = %19, %21, %23, %25
  %26 = getelementptr inbounds i8, ptr %1, i64 112
  %27 = tail call noundef i64 @_ZNK6casadi8Sparsity3nnzEv(ptr noundef nonnull align 8 dereferenceable(8) %6)
  %28 = getelementptr inbounds i8, ptr %1, i64 120
  %29 = load ptr, ptr %28, align 8
  %30 = load ptr, ptr %26, align 8
  %31 = ptrtoint ptr %29 to i64
  %32 = ptrtoint ptr %30 to i64
  %33 = sub i64 %31, %32
  %34 = ashr exact i64 %33, 3
  %35 = icmp ult i64 %34, %27
  br i1 %35, label %36, label %38

36:                                               ; preds = %_ZNSt6vectorIdSaIdEE6resizeEm.exit
  %37 = sub i64 %27, %34
  tail call void @_ZNSt6vectorIdSaIdEE17_M_default_appendEm(ptr noundef nonnull align 8 dereferenceable(24) %26, i64 noundef %37)
  br label %_ZNSt6vectorIdSaIdEE6resizeEm.exit6

38:                                               ; preds = %_ZNSt6vectorIdSaIdEE6resizeEm.exit
  %39 = icmp ugt i64 %34, %27
  br i1 %39, label %40, label %_ZNSt6vectorIdSaIdEE6resizeEm.exit6

40:                                               ; preds = %38
  %41 = getelementptr inbounds double, ptr %30, i64 %27
  %.not.i.i5 = icmp eq ptr %29, %41
  br i1 %.not.i.i5, label %_ZNSt6vectorIdSaIdEE6resizeEm.exit6, label %42

42:                                               ; preds = %40
  store ptr %41, ptr %28, align 8
  br label %_ZNSt6vectorIdSaIdEE6resizeEm.exit6

_ZNSt6vectorIdSaIdEE6resizeEm.exit6:              ; preds = %42, %40, %38, %36, %2
  %.0 = phi i32 [ 1, %2 ], [ 0, %36 ], [ 0, %38 ], [ 0, %40 ], [ 0, %42 ]
  ret i32 %.0
}